; Function Attrs: mustprogress nounwind uwtable
define internal fastcc void @"_ZZN9grpc_core29FakeResolverResponseGenerator20SendResultToResolverENS_13RefCountedPtrINS_12FakeResolverEEENS_8Resolver6ResultEPNS_12NotificationEEN3$_0D2Ev"(ptr noundef nonnull align 8 dereferenceable(136) %this) unnamed_addr #4 align 2 personality ptr @__gxx_personality_v0 {
entry:
  %0 = getelementptr inbounds i8, ptr %this, i64 8
  tail call void @_ZN9grpc_core8Resolver6ResultD2Ev(ptr noundef nonnull align 8 dereferenceable(120) %0) #17
  %1 = load ptr, ptr %this, align 8
  %cmp.not.i = icmp eq ptr %1, null
  br i1 %cmp.not.i, label %_ZN9grpc_core13RefCountedPtrINS_12FakeResolverEED2Ev.exit, label %if.then.i

if.then.i:                                        ; preds = %entry
  %refs_.i.i = getelementptr inbounds i8, ptr %1, i64 8
  %2 = atomicrmw sub ptr %refs_.i.i, i64 1 acq_rel, align 8
  %cmp.i.i.i = icmp eq i64 %2, 1
  br i1 %cmp.i.i.i, label %if.then.i.i, label %_ZN9grpc_core13RefCountedPtrINS_12FakeResolverEED2Ev.exit

if.then.i.i:                                      ; preds = %if.then.i
  %vtable.i.i.i = load ptr, ptr %1, align 8
  %vfn.i.i.i = getelementptr inbounds i8, ptr %vtable.i.i.i, i64 16
  %3 = load ptr, ptr %vfn.i.i.i, align 8
  tail call void %3(ptr noundef nonnull align 8 dereferenceable(16) %1) #17
  br label %_ZN9grpc_core13RefCountedPtrINS_12FakeResolverEED2Ev.exit

_ZN9grpc_core13RefCountedPtrINS_12FakeResolverEED2Ev.exit: ; preds = %entry, %if.then.i, %if.then.i.i
  ret void
}